target datalayout = "e-m:e-p270:32:32-p271:32:32-p272:64:64-i64:64-i128:128-f80:128-n8:16:32:64-S128"
target triple = "x86_64-pc-linux-gnu"

%struct.grpc_slice = type { ptr, %"union.grpc_slice::grpc_slice_data" }
%"union.grpc_slice::grpc_slice_data" = type { %"struct.grpc_slice::grpc_slice_data::grpc_slice_refcounted", [8 x i8] }
%"struct.grpc_slice::grpc_slice_data::grpc_slice_refcounted" = type { i64, ptr }
%"struct.grpc_core::CallTracerInterface::TransportByteSize" = type { i64, i64, i64 }
%"class.absl::lts_20240722::log_internal::Voidify" = type { i8 }
%"class.absl::lts_20240722::log_internal::LogMessageFatal" = type { %"class.absl::lts_20240722::log_internal::LogMessage" }
%"class.absl::lts_20240722::log_internal::LogMessage" = type { %"class.absl::lts_20240722::base_internal::ErrnoSaver", %"class.std::unique_ptr" }
%"class.absl::lts_20240722::base_internal::ErrnoSaver" = type { i32 }
%"class.std::unique_ptr" = type { %"struct.std::__uniq_ptr_data" }
%"struct.std::__uniq_ptr_data" = type { %"class.std::__uniq_ptr_impl" }
%"class.std::__uniq_ptr_impl" = type { %"class.std::tuple" }
%"class.std::tuple" = type { %"struct.std::_Tuple_impl" }
%"struct.std::_Tuple_impl" = type { %"struct.std::_Head_base.1" }
%"struct.std::_Head_base.1" = type { ptr }
%"class.std::basic_string_view" = type { i64, ptr }
%"struct.grpc_slice::grpc_slice_data::grpc_slice_inlined" = type { i8, [23 x i8] }

@.str = private unnamed_addr constant [150 x i8] c"generated/home/dtcxzyw/WorkSpace/Projects/compilers/llvm-opt-benchmark/bench/grpc/grpc/src/core/ext/transport/chttp2/transport/frame_window_update.cc\00", align 1
@.str.1 = private unnamed_addr constant [13 x i8] c"window_delta\00", align 1

; Function Attrs: noinline noreturn nounwind uwtable
define linkonce_odr hidden void @__clang_call_terminate(ptr noundef %0) #14 comdat {
  %2 = call ptr @__cxa_begin_catch(ptr %0) #3
  call void @_ZSt9terminatev() #23
  unreachable
}

; Function Attrs: mustprogress nounwind uwtable
define linkonce_odr noundef i64 @_ZNSt11char_traitsIcE6lengthEPKc(ptr noundef %0) #7 comdat align 2 {
  %2 = alloca ptr, align 8
  store ptr %0, ptr %2, align 8, !tbaa !21
  %3 = load ptr, ptr %2, align 8, !tbaa !21
  %4 = call i64 @strlen(ptr noundef %3) #3
  ret i64 %4
}

; Function Attrs: mustprogress nounwind uwtable
define linkonce_odr void @_ZNKO4absl12lts_2024072212log_internal7VoidifyaaINS1_10LogMessageEEEvRKT_(ptr noundef nonnull align 1 dereferenceable(1) %0, ptr noundef nonnull align 8 dereferenceable(16) %1) #7 comdat align 2 {
  %3 = alloca ptr, align 8
  %4 = alloca ptr, align 8
  store ptr %0, ptr %3, align 8, !tbaa !23
  store ptr %1, ptr %4, align 8, !tbaa !25
  ret void
}

; Function Attrs: mustprogress nounwind uwtable
define linkonce_odr noundef nonnull align 8 dereferenceable(16) ptr @_ZN4absl12lts_2024072212log_internal10LogMessage14InternalStreamEv(ptr noundef nonnull align 8 dereferenceable(16) %0) #7 comdat align 2 {
  %2 = alloca ptr, align 8
  store ptr %0, ptr %2, align 8, !tbaa !25
  %3 = load ptr, ptr %2, align 8
  ret ptr %3
}

; Function Attrs: mustprogress nounwind uwtable
define linkonce_odr void @_ZNSt17basic_string_viewIcSt11char_traitsIcEEC2EPKc(ptr noundef nonnull align 8 dereferenceable(16) %0, ptr noundef nonnull %1) unnamed_addr #7 comdat align 2 personality ptr @__gxx_personality_v0 {
  %3 = alloca ptr, align 8
  %4 = alloca ptr, align 8
  store ptr %0, ptr %3, align 8, !tbaa !27
  store ptr %1, ptr %4, align 8, !tbaa !21
  %5 = load ptr, ptr %3, align 8
  %6 = getelementptr inbounds nuw %"class.std::basic_string_view", ptr %5, i32 0, i32 0
  %7 = load ptr, ptr %4, align 8, !tbaa !21
  %8 = invoke noundef i64 @_ZNSt11char_traitsIcE6lengthEPKc(ptr noundef %7)
          to label %9 unwind label %12

9:                                                ; preds = %2
  store i64 %8, ptr %6, align 8, !tbaa !29
  %10 = getelementptr inbounds nuw %"class.std::basic_string_view", ptr %5, i32 0, i32 1
  %11 = load ptr, ptr %4, align 8, !tbaa !21
  store ptr %11, ptr %10, align 8, !tbaa !31
  ret void

12:                                               ; preds = %2
  %13 = landingpad { ptr, i32 }
          catch ptr null
  %14 = extractvalue { ptr, i32 } %13, 0
  call void @__clang_call_terminate(ptr %14) #23
  unreachable
}

; Function Attrs: mustprogress uwtable
define void @_Z32grpc_chttp2_window_update_createjjPN9grpc_core19CallTracerInterfaceE(ptr dead_on_unwind noalias writable sret(%struct.grpc_slice) align 8 %0, i32 noundef %1, i32 noundef %2, ptr noundef %3) #4 personality ptr @__gxx_personality_v0 {
  %5 = alloca i32, align 4
  %6 = alloca i32, align 4
  %7 = alloca ptr, align 8
  %8 = alloca %"struct.grpc_core::CallTracerInterface::TransportByteSize", align 8
  %9 = alloca ptr, align 8
  %10 = alloca %"class.absl::lts_20240722::log_internal::Voidify", align 1
  %11 = alloca %"class.absl::lts_20240722::log_internal::LogMessageFatal", align 8
  %12 = alloca i1, align 1
  %13 = alloca %"class.std::basic_string_view", align 8
  %14 = alloca i1, align 1
  %15 = alloca ptr, align 8
  %16 = alloca i32, align 4
  store i32 %1, ptr %5, align 4, !tbaa !3
  store i32 %2, ptr %6, align 4, !tbaa !3
  store ptr %3, ptr %7, align 8, !tbaa !7
  call void @grpc_slice_malloc(ptr dead_on_unwind writable sret(%struct.grpc_slice) align 8 %0, i64 noundef 13)
  %17 = load ptr, ptr %7, align 8, !tbaa !7
  %18 = icmp ne ptr %17, null
  br i1 %18, label %19, label %27

19:                                               ; preds = %4
  %20 = load ptr, ptr %7, align 8, !tbaa !7
  call void @llvm.lifetime.start.p0(i64 24, ptr %8) #3
  %21 = getelementptr inbounds nuw %"struct.grpc_core::CallTracerInterface::TransportByteSize", ptr %8, i32 0, i32 0
  store i64 13, ptr %21, align 8, !tbaa !10
  %22 = getelementptr inbounds nuw %"struct.grpc_core::CallTracerInterface::TransportByteSize", ptr %8, i32 0, i32 1
  store i64 0, ptr %22, align 8, !tbaa !13
  %23 = getelementptr inbounds nuw %"struct.grpc_core::CallTracerInterface::TransportByteSize", ptr %8, i32 0, i32 2
  store i64 0, ptr %23, align 8, !tbaa !14
  %24 = load ptr, ptr %20, align 8, !tbaa !15
  %25 = getelementptr inbounds ptr, ptr %24, i64 17
  %26 = load ptr, ptr %25, align 8
  call void %26(ptr noundef nonnull align 8 dereferenceable(8) %20, ptr noundef nonnull align 8 dereferenceable(24) %8)
  call void @llvm.lifetime.end.p0(i64 24, ptr %8) #3
  br label %27

27:                                               ; preds = %19, %4
  call void @llvm.lifetime.start.p0(i64 8, ptr %9) #3
  %28 = getelementptr inbounds nuw %struct.grpc_slice, ptr %0, i32 0, i32 0
  %29 = load ptr, ptr %28, align 8, !tbaa !17
  %30 = icmp ne ptr %29, null
  br i1 %30, label %31, label %35

31:                                               ; preds = %27
  %32 = getelementptr inbounds nuw %struct.grpc_slice, ptr %0, i32 0, i32 1
  %33 = getelementptr inbounds nuw %"struct.grpc_slice::grpc_slice_data::grpc_slice_refcounted", ptr %32, i32 0, i32 1
  %34 = load ptr, ptr %33, align 8, !tbaa !20
  br label %39

35:                                               ; preds = %27
  %36 = getelementptr inbounds nuw %struct.grpc_slice, ptr %0, i32 0, i32 1
  %37 = getelementptr inbounds nuw %"struct.grpc_slice::grpc_slice_data::grpc_slice_inlined", ptr %36, i32 0, i32 1
  %38 = getelementptr inbounds [23 x i8], ptr %37, i64 0, i64 0
  br label %39

39:                                               ; preds = %35, %31
  %40 = phi ptr [ %34, %31 ], [ %38, %35 ]
  store ptr %40, ptr %9, align 8, !tbaa !21
  %41 = load i32, ptr %6, align 4, !tbaa !3
  %42 = icmp ne i32 %41, 0
  %43 = xor i1 %42, true
  %44 = zext i1 %43 to i64
  %45 = call i64 @llvm.expect.i64(i64 %44, i64 0)
  %46 = icmp ne i64 %45, 0
  call void @llvm.lifetime.start.p0(i64 1, ptr %10) #3
  store i1 false, ptr %12, align 1
  store i1 false, ptr %14, align 1
  br i1 %46, label %48, label %47

47:                                               ; preds = %39
  br label %56

48:                                               ; preds = %39
  call void @llvm.lifetime.start.p0(i64 16, ptr %11) #3
  store i1 true, ptr %12, align 1
  call void @_ZNSt17basic_string_viewIcSt11char_traitsIcEEC2EPKc(ptr noundef nonnull align 8 dereferenceable(16) %13, ptr noundef @.str.1) #3
  %49 = getelementptr inbounds nuw { i64, ptr }, ptr %13, i32 0, i32 0
  %50 = load i64, ptr %49, align 8
  %51 = getelementptr inbounds nuw { i64, ptr }, ptr %13, i32 0, i32 1
  %52 = load ptr, ptr %51, align 8
  call void @_ZN4absl12lts_2024072212log_internal15LogMessageFatalC1EPKciSt17basic_string_viewIcSt11char_traitsIcEE(ptr noundef nonnull align 8 dereferenceable(16) %11, ptr noundef @.str, i32 noundef 45, i64 %50, ptr %52) #22
  store i1 true, ptr %14, align 1
  %53 = invoke noundef nonnull align 8 dereferenceable(16) ptr @_ZN4absl12lts_2024072212log_internal10LogMessage14InternalStreamEv(ptr noundef nonnull align 8 dereferenceable(16) %11)
          to label %54 unwind label %59

54:                                               ; preds = %48
  invoke void @_ZNKO4absl12lts_2024072212log_internal7VoidifyaaINS1_10LogMessageEEEvRKT_(ptr noundef nonnull align 1 dereferenceable(1) %10, ptr noundef nonnull align 8 dereferenceable(16) %53)
          to label %55 unwind label %59

55:                                               ; preds = %54
  br label %56

56:                                               ; preds = %55, %47
  %57 = load i1, ptr %14, align 1
  br i1 %57, label %58, label %65

58:                                               ; preds = %56
  call void @_ZN4absl12lts_2024072212log_internal15LogMessageFatalD1Ev(ptr noundef nonnull align 8 dereferenceable(16) %11) #23
  unreachable

59:                                               ; preds = %54, %48
  %60 = landingpad { ptr, i32 }
          cleanup
  %61 = extractvalue { ptr, i32 } %60, 0
  store ptr %61, ptr %15, align 8
  %62 = extractvalue { ptr, i32 } %60, 1
  store i32 %62, ptr %16, align 4
  %63 = load i1, ptr %14, align 1
  br i1 %63, label %117, label %119

64:                                               ; No predecessors!
  br label %65

65:                                               ; preds = %64, %56
  %66 = load i1, ptr %12, align 1
  br i1 %66, label %67, label %68

67:                                               ; preds = %65
  call void @llvm.lifetime.end.p0(i64 16, ptr %11) #3
  br label %68

68:                                               ; preds = %67, %65
  call void @llvm.lifetime.end.p0(i64 1, ptr %10) #3
  %69 = load ptr, ptr %9, align 8, !tbaa !21
  %70 = getelementptr inbounds nuw i8, ptr %69, i32 1
  store ptr %70, ptr %9, align 8, !tbaa !21
  store i8 0, ptr %69, align 1, !tbaa !20
  %71 = load ptr, ptr %9, align 8, !tbaa !21
  %72 = getelementptr inbounds nuw i8, ptr %71, i32 1
  store ptr %72, ptr %9, align 8, !tbaa !21
  store i8 0, ptr %71, align 1, !tbaa !20
  %73 = load ptr, ptr %9, align 8, !tbaa !21
  %74 = getelementptr inbounds nuw i8, ptr %73, i32 1
  store ptr %74, ptr %9, align 8, !tbaa !21
  store i8 4, ptr %73, align 1, !tbaa !20
  %75 = load ptr, ptr %9, align 8, !tbaa !21
  %76 = getelementptr inbounds nuw i8, ptr %75, i32 1
  store ptr %76, ptr %9, align 8, !tbaa !21
  store i8 8, ptr %75, align 1, !tbaa !20
  %77 = load ptr, ptr %9, align 8, !tbaa !21
  %78 = getelementptr inbounds nuw i8, ptr %77, i32 1
  store ptr %78, ptr %9, align 8, !tbaa !21
  store i8 0, ptr %77, align 1, !tbaa !20
  %79 = load i32, ptr %5, align 4, !tbaa !3
  %80 = lshr i32 %79, 24
  %81 = trunc i32 %80 to i8
  %82 = load ptr, ptr %9, align 8, !tbaa !21
  %83 = getelementptr inbounds nuw i8, ptr %82, i32 1
  store ptr %83, ptr %9, align 8, !tbaa !21
  store i8 %81, ptr %82, align 1, !tbaa !20
  %84 = load i32, ptr %5, align 4, !tbaa !3
  %85 = lshr i32 %84, 16
  %86 = trunc i32 %85 to i8
  %87 = load ptr, ptr %9, align 8, !tbaa !21
  %88 = getelementptr inbounds nuw i8, ptr %87, i32 1
  store ptr %88, ptr %9, align 8, !tbaa !21
  store i8 %86, ptr %87, align 1, !tbaa !20
  %89 = load i32, ptr %5, align 4, !tbaa !3
  %90 = lshr i32 %89, 8
  %91 = trunc i32 %90 to i8
  %92 = load ptr, ptr %9, align 8, !tbaa !21
  %93 = getelementptr inbounds nuw i8, ptr %92, i32 1
  store ptr %93, ptr %9, align 8, !tbaa !21
  store i8 %91, ptr %92, align 1, !tbaa !20
  %94 = load i32, ptr %5, align 4, !tbaa !3
  %95 = trunc i32 %94 to i8
  %96 = load ptr, ptr %9, align 8, !tbaa !21
  %97 = getelementptr inbounds nuw i8, ptr %96, i32 1
  store ptr %97, ptr %9, align 8, !tbaa !21
  store i8 %95, ptr %96, align 1, !tbaa !20
  %98 = load i32, ptr %6, align 4, !tbaa !3
  %99 = lshr i32 %98, 24
  %100 = trunc i32 %99 to i8
  %101 = load ptr, ptr %9, align 8, !tbaa !21
  %102 = getelementptr inbounds nuw i8, ptr %101, i32 1
  store ptr %102, ptr %9, align 8, !tbaa !21
  store i8 %100, ptr %101, align 1, !tbaa !20
  %103 = load i32, ptr %6, align 4, !tbaa !3
  %104 = lshr i32 %103, 16
  %105 = trunc i32 %104 to i8
  %106 = load ptr, ptr %9, align 8, !tbaa !21
  %107 = getelementptr inbounds nuw i8, ptr %106, i32 1
  store ptr %107, ptr %9, align 8, !tbaa !21
  store i8 %105, ptr %106, align 1, !tbaa !20
  %108 = load i32, ptr %6, align 4, !tbaa !3
  %109 = lshr i32 %108, 8
  %110 = trunc i32 %109 to i8
  %111 = load ptr, ptr %9, align 8, !tbaa !21
  %112 = getelementptr inbounds nuw i8, ptr %111, i32 1
  store ptr %112, ptr %9, align 8, !tbaa !21
  store i8 %110, ptr %111, align 1, !tbaa !20
  %113 = load i32, ptr %6, align 4, !tbaa !3
  %114 = trunc i32 %113 to i8
  %115 = load ptr, ptr %9, align 8, !tbaa !21
  %116 = getelementptr inbounds nuw i8, ptr %115, i32 1
  store ptr %116, ptr %9, align 8, !tbaa !21
  store i8 %114, ptr %115, align 1, !tbaa !20
  call void @llvm.lifetime.end.p0(i64 8, ptr %9) #3
  ret void

117:                                              ; preds = %59
  call void @_ZN4absl12lts_2024072212log_internal15LogMessageFatalD1Ev(ptr noundef nonnull align 8 dereferenceable(16) %11) #23
  unreachable

118:                                              ; No predecessors!
  br label %119

119:                                              ; preds = %118, %59
  %120 = load i1, ptr %12, align 1
  br i1 %120, label %121, label %122

121:                                              ; preds = %119
  call void @llvm.lifetime.end.p0(i64 16, ptr %11) #3
  br label %122

122:                                              ; preds = %121, %119
  call void @llvm.lifetime.end.p0(i64 1, ptr %10) #3
  call void @llvm.lifetime.end.p0(i64 8, ptr %9) #3
  br label %123

123:                                              ; preds = %122
  %124 = load ptr, ptr %15, align 8
  %125 = load i32, ptr %16, align 4
  %126 = insertvalue { ptr, i32 } poison, ptr %124, 0
  %127 = insertvalue { ptr, i32 } %126, i32 %125, 1
  resume { ptr, i32 } %127
}