; Function Attrs: mustprogress uwtable
define void @_Z32grpc_chttp2_window_update_createjjPN9grpc_core19CallTracerInterfaceE(ptr dead_on_unwind noalias writable sret(%struct.grpc_slice) align 8 %0, i32 noundef %1, i32 noundef %2, ptr noundef %3) local_unnamed_addr #3 personality ptr @__gxx_personality_v0 {
  %5 = alloca %"struct.grpc_core::CallTracerInterface::TransportByteSize", align 8
  %6 = alloca %"class.absl::lts_20240722::log_internal::LogMessageFatal", align 8
  tail call void @grpc_slice_malloc(ptr dead_on_unwind writable sret(%struct.grpc_slice) align 8 %0, i64 noundef 13)
  %.not = icmp eq ptr %3, null
  br i1 %.not, label %12, label %7

7:                                                ; preds = %4
  call void @llvm.lifetime.start.p0(i64 24, ptr nonnull %5) #22
  store i64 13, ptr %5, align 8, !tbaa !3
  %8 = getelementptr inbounds nuw i8, ptr %5, i64 8
  call void @llvm.memset.p0.i64(ptr noundef nonnull align 8 dereferenceable(16) %8, i8 0, i64 16, i1 false)
  %9 = load ptr, ptr %3, align 8, !tbaa !8
  %10 = getelementptr inbounds nuw i8, ptr %9, i64 136
  %11 = load ptr, ptr %10, align 8
  call void %11(ptr noundef nonnull align 8 dereferenceable(8) %3, ptr noundef nonnull align 8 dereferenceable(24) %5)
  call void @llvm.lifetime.end.p0(i64 24, ptr nonnull %5) #22
  br label %12

12:                                               ; preds = %7, %4
  %.not28 = icmp eq i32 %2, 0
  br i1 %.not28, label %13, label %.critedge, !prof !10

13:                                               ; preds = %12
  call void @llvm.lifetime.start.p0(i64 16, ptr nonnull %6) #22
  call void @_ZN4absl12lts_2024072212log_internal15LogMessageFatalC1EPKciSt17basic_string_viewIcSt11char_traitsIcEE(ptr noundef nonnull align 8 dereferenceable(16) %6, ptr noundef nonnull @.str, i32 noundef 45, i64 12, ptr nonnull @.str.1) #23
  call void @_ZN4absl12lts_2024072212log_internal15LogMessageFatalD1Ev(ptr noundef nonnull align 8 dereferenceable(16) %6) #24
  unreachable

.critedge:                                        ; preds = %12
  %14 = getelementptr inbounds nuw i8, ptr %0, i64 16
  %15 = load ptr, ptr %14, align 8
  %16 = load ptr, ptr %0, align 8, !tbaa !11
  %.not27 = icmp eq ptr %16, null
  %17 = getelementptr inbounds nuw i8, ptr %0, i64 9
  %18 = select i1 %.not27, ptr %17, ptr %15
  %19 = getelementptr inbounds nuw i8, ptr %18, i64 1
  store i8 0, ptr %18, align 1, !tbaa !15
  %20 = getelementptr inbounds nuw i8, ptr %18, i64 2
  store i8 0, ptr %19, align 1, !tbaa !15
  %21 = getelementptr inbounds nuw i8, ptr %18, i64 3
  store i8 4, ptr %20, align 1, !tbaa !15
  %22 = getelementptr inbounds nuw i8, ptr %18, i64 4
  store i8 8, ptr %21, align 1, !tbaa !15
  %23 = getelementptr inbounds nuw i8, ptr %18, i64 5
  store i8 0, ptr %22, align 1, !tbaa !15
  %24 = lshr i32 %1, 24
  %25 = trunc nuw i32 %24 to i8
  %26 = getelementptr inbounds nuw i8, ptr %18, i64 6
  store i8 %25, ptr %23, align 1, !tbaa !15
  %27 = lshr i32 %1, 16
  %28 = trunc i32 %27 to i8
  %29 = getelementptr inbounds nuw i8, ptr %18, i64 7
  store i8 %28, ptr %26, align 1, !tbaa !15
  %30 = lshr i32 %1, 8
  %31 = trunc i32 %30 to i8
  %32 = getelementptr inbounds nuw i8, ptr %18, i64 8
  store i8 %31, ptr %29, align 1, !tbaa !15
  %33 = trunc i32 %1 to i8
  %34 = getelementptr inbounds nuw i8, ptr %18, i64 9
  store i8 %33, ptr %32, align 1, !tbaa !15
  %35 = lshr i32 %2, 24
  %36 = trunc nuw i32 %35 to i8
  %37 = getelementptr inbounds nuw i8, ptr %18, i64 10
  store i8 %36, ptr %34, align 1, !tbaa !15
  %38 = lshr i32 %2, 16
  %39 = trunc i32 %38 to i8
  %40 = getelementptr inbounds nuw i8, ptr %18, i64 11
  store i8 %39, ptr %37, align 1, !tbaa !15
  %41 = lshr i32 %2, 8
  %42 = trunc i32 %41 to i8
  %43 = getelementptr inbounds nuw i8, ptr %18, i64 12
  store i8 %42, ptr %40, align 1, !tbaa !15
  %44 = trunc i32 %2 to i8
  store i8 %44, ptr %43, align 1, !tbaa !15
  ret void
}